target datalayout = "e-m:e-p270:32:32-p271:32:32-p272:64:64-i64:64-i128:128-f80:128-n8:16:32:64-S128"
target triple = "x86_64-pc-linux-gnu"

%"struct.duckdb_libpgquery::PGList" = type { i32, i32, ptr, ptr }
%"struct.duckdb_libpgquery::PGListCell" = type { %union.anon, ptr }
%union.anon = type { ptr }

; Function Attrs: inlinehint mustprogress nounwind uwtable
define internal noundef ptr @_ZN17duckdb_libpgqueryL9list_headEPKNS_6PGListE(ptr noundef %0) #3 {
  %2 = alloca ptr, align 8
  store ptr %0, ptr %2, align 8, !tbaa !3
  %3 = load ptr, ptr %2, align 8, !tbaa !3
  %4 = icmp ne ptr %3, null
  br i1 %4, label %5, label %9

5:                                                ; preds = %1
  %6 = load ptr, ptr %2, align 8, !tbaa !3
  %7 = getelementptr inbounds nuw %"struct.duckdb_libpgquery::PGList", ptr %6, i32 0, i32 2
  %8 = load ptr, ptr %7, align 8, !tbaa !21
  br label %10

9:                                                ; preds = %1
  br label %10

10:                                               ; preds = %9, %5
  %11 = phi ptr [ %8, %5 ], [ null, %9 ]
  ret ptr %11
}

; Function Attrs: inlinehint mustprogress nounwind uwtable
define internal noundef i32 @_ZN17duckdb_libpgqueryL11list_lengthEPKNS_6PGListE(ptr noundef %0) #3 {
  %2 = alloca ptr, align 8
  store ptr %0, ptr %2, align 8, !tbaa !3
  %3 = load ptr, ptr %2, align 8, !tbaa !3
  %4 = icmp ne ptr %3, null
  br i1 %4, label %5, label %9

5:                                                ; preds = %1
  %6 = load ptr, ptr %2, align 8, !tbaa !3
  %7 = getelementptr inbounds nuw %"struct.duckdb_libpgquery::PGList", ptr %6, i32 0, i32 1
  %8 = load i32, ptr %7, align 4, !tbaa !20
  br label %10

9:                                                ; preds = %1
  br label %10

10:                                               ; preds = %9, %5
  %11 = phi i32 [ %8, %5 ], [ 0, %9 ]
  ret i32 %11
}

; Function Attrs: mustprogress uwtable
define hidden noundef ptr @_ZN17duckdb_libpgquery13list_truncateEPNS_6PGListEi(ptr noundef %0, i32 noundef %1) #0 {
  %3 = alloca ptr, align 8
  %4 = alloca ptr, align 8
  %5 = alloca i32, align 4
  %6 = alloca ptr, align 8
  %7 = alloca i32, align 4
  %8 = alloca i32, align 4
  store ptr %0, ptr %4, align 8, !tbaa !3
  store i32 %1, ptr %5, align 4, !tbaa !22
  call void @llvm.lifetime.start.p0(i64 8, ptr %6) #6
  call void @llvm.lifetime.start.p0(i64 4, ptr %7) #6
  %9 = load i32, ptr %5, align 4, !tbaa !22
  %10 = icmp sle i32 %9, 0
  br i1 %10, label %11, label %12

11:                                               ; preds = %2
  store ptr null, ptr %3, align 8
  store i32 1, ptr %8, align 4
  br label %48

12:                                               ; preds = %2
  %13 = load i32, ptr %5, align 4, !tbaa !22
  %14 = load ptr, ptr %4, align 8, !tbaa !3
  %15 = call noundef i32 @_ZN17duckdb_libpgqueryL11list_lengthEPKNS_6PGListE(ptr noundef %14)
  %16 = icmp sge i32 %13, %15
  br i1 %16, label %17, label %19

17:                                               ; preds = %12
  %18 = load ptr, ptr %4, align 8, !tbaa !3
  store ptr %18, ptr %3, align 8
  store i32 1, ptr %8, align 4
  br label %48

19:                                               ; preds = %12
  store i32 1, ptr %7, align 4, !tbaa !22
  %20 = load ptr, ptr %4, align 8, !tbaa !3
  %21 = call noundef ptr @_ZN17duckdb_libpgqueryL9list_headEPKNS_6PGListE(ptr noundef %20)
  store ptr %21, ptr %6, align 8, !tbaa !16
  br label %22

22:                                               ; preds = %42, %19
  %23 = load ptr, ptr %6, align 8, !tbaa !16
  %24 = icmp ne ptr %23, null
  br i1 %24, label %25, label %46

25:                                               ; preds = %22
  %26 = load i32, ptr %7, align 4, !tbaa !22
  %27 = load i32, ptr %5, align 4, !tbaa !22
  %28 = icmp eq i32 %26, %27
  br i1 %28, label %29, label %39

29:                                               ; preds = %25
  %30 = load ptr, ptr %6, align 8, !tbaa !16
  %31 = getelementptr inbounds nuw %"struct.duckdb_libpgquery::PGListCell", ptr %30, i32 0, i32 1
  store ptr null, ptr %31, align 8, !tbaa !17
  %32 = load ptr, ptr %6, align 8, !tbaa !16
  %33 = load ptr, ptr %4, align 8, !tbaa !3
  %34 = getelementptr inbounds nuw %"struct.duckdb_libpgquery::PGList", ptr %33, i32 0, i32 3
  store ptr %32, ptr %34, align 8, !tbaa !9
  %35 = load i32, ptr %5, align 4, !tbaa !22
  %36 = load ptr, ptr %4, align 8, !tbaa !3
  %37 = getelementptr inbounds nuw %"struct.duckdb_libpgquery::PGList", ptr %36, i32 0, i32 1
  store i32 %35, ptr %37, align 4, !tbaa !20
  %38 = load ptr, ptr %4, align 8, !tbaa !3
  store ptr %38, ptr %3, align 8
  store i32 1, ptr %8, align 4
  br label %48

39:                                               ; preds = %25
  %40 = load i32, ptr %7, align 4, !tbaa !22
  %41 = add nsw i32 %40, 1
  store i32 %41, ptr %7, align 4, !tbaa !22
  br label %42

42:                                               ; preds = %39
  %43 = load ptr, ptr %6, align 8, !tbaa !16
  %44 = getelementptr inbounds nuw %"struct.duckdb_libpgquery::PGListCell", ptr %43, i32 0, i32 1
  %45 = load ptr, ptr %44, align 8, !tbaa !17
  store ptr %45, ptr %6, align 8, !tbaa !16
  br label %22, !llvm.loop !23

46:                                               ; preds = %22
  %47 = load ptr, ptr %4, align 8, !tbaa !3
  store ptr %47, ptr %3, align 8
  store i32 1, ptr %8, align 4
  br label %48

48:                                               ; preds = %46, %29, %17, %11
  call void @llvm.lifetime.end.p0(i64 4, ptr %7) #6
  call void @llvm.lifetime.end.p0(i64 8, ptr %6) #6
  %49 = load ptr, ptr %3, align 8
  ret ptr %49
}