; Function Attrs: mustprogress nofree norecurse nosync nounwind memory(readwrite, inaccessiblemem: none) uwtable
define hidden noundef ptr @_ZN17duckdb_libpgquery13list_truncateEPNS_6PGListEi(ptr noundef captures(address_is_null, ret: address, provenance) %0, i32 noundef %1) local_unnamed_addr #2 {
  %3 = icmp slt i32 %1, 1
  %.not.i = icmp eq ptr %0, null
  %or.cond = or i1 %.not.i, %3
  br i1 %or.cond, label %_ZN17duckdb_libpgqueryL11list_lengthEPKNS_6PGListE.exit.thread, label %_ZN17duckdb_libpgqueryL11list_lengthEPKNS_6PGListE.exit

_ZN17duckdb_libpgqueryL11list_lengthEPKNS_6PGListE.exit: ; preds = %2
  %4 = getelementptr inbounds nuw i8, ptr %0, i64 4
  %5 = load i32, ptr %4, align 4, !tbaa !13
  %.not = icmp slt i32 %1, %5
  br i1 %.not, label %_ZN17duckdb_libpgqueryL9list_headEPKNS_6PGListE.exit.preheader, label %_ZN17duckdb_libpgqueryL11list_lengthEPKNS_6PGListE.exit.thread

_ZN17duckdb_libpgqueryL9list_headEPKNS_6PGListE.exit.preheader: ; preds = %_ZN17duckdb_libpgqueryL11list_lengthEPKNS_6PGListE.exit
  %.017.in24 = getelementptr inbounds nuw i8, ptr %0, i64 8
  %.01725 = load ptr, ptr %.017.in24, align 8, !tbaa !17
  %.not2026 = icmp eq ptr %.01725, null
  br i1 %.not2026, label %_ZN17duckdb_libpgqueryL11list_lengthEPKNS_6PGListE.exit.thread, label %.lr.ph

_ZN17duckdb_libpgqueryL9list_headEPKNS_6PGListE.exit: ; preds = %.lr.ph
  %6 = add nuw nsw i32 %.027, 1
  %.017.in = getelementptr inbounds nuw i8, ptr %.01728, i64 8
  %.017 = load ptr, ptr %.017.in, align 8, !tbaa !17
  %.not20 = icmp eq ptr %.017, null
  br i1 %.not20, label %_ZN17duckdb_libpgqueryL11list_lengthEPKNS_6PGListE.exit.thread, label %.lr.ph, !llvm.loop !18

.lr.ph:                                           ; preds = %_ZN17duckdb_libpgqueryL9list_headEPKNS_6PGListE.exit.preheader, %_ZN17duckdb_libpgqueryL9list_headEPKNS_6PGListE.exit
  %.01728 = phi ptr [ %.017, %_ZN17duckdb_libpgqueryL9list_headEPKNS_6PGListE.exit ], [ %.01725, %_ZN17duckdb_libpgqueryL9list_headEPKNS_6PGListE.exit.preheader ]
  %.027 = phi i32 [ %6, %_ZN17duckdb_libpgqueryL9list_headEPKNS_6PGListE.exit ], [ 1, %_ZN17duckdb_libpgqueryL9list_headEPKNS_6PGListE.exit.preheader ]
  %7 = icmp eq i32 %.027, %1
  br i1 %7, label %8, label %_ZN17duckdb_libpgqueryL9list_headEPKNS_6PGListE.exit

8:                                                ; preds = %.lr.ph
  %9 = getelementptr inbounds nuw i8, ptr %.01728, i64 8
  store ptr null, ptr %9, align 8, !tbaa !3
  %10 = getelementptr inbounds nuw i8, ptr %0, i64 16
  store ptr %.01728, ptr %10, align 8, !tbaa !15
  store i32 %1, ptr %4, align 4, !tbaa !13
  br label %_ZN17duckdb_libpgqueryL11list_lengthEPKNS_6PGListE.exit.thread

_ZN17duckdb_libpgqueryL11list_lengthEPKNS_6PGListE.exit.thread: ; preds = %_ZN17duckdb_libpgqueryL9list_headEPKNS_6PGListE.exit, %_ZN17duckdb_libpgqueryL9list_headEPKNS_6PGListE.exit.preheader, %_ZN17duckdb_libpgqueryL11list_lengthEPKNS_6PGListE.exit, %2, %8
  %.018 = phi ptr [ %0, %8 ], [ null, %2 ], [ %0, %_ZN17duckdb_libpgqueryL11list_lengthEPKNS_6PGListE.exit ], [ %0, %_ZN17duckdb_libpgqueryL9list_headEPKNS_6PGListE.exit.preheader ], [ %0, %_ZN17duckdb_libpgqueryL9list_headEPKNS_6PGListE.exit ]
  ret ptr %.018
}